; Function Attrs: nounwind uwtable
define hidden noundef zeroext i1 @SDL_HasInternalClipboardData(ptr noundef readonly captures(none) %0, ptr noundef %1) local_unnamed_addr #0 {
  %3 = getelementptr inbounds nuw i8, ptr %0, i64 880
  %4 = getelementptr inbounds nuw i8, ptr %0, i64 888
  %5 = load i64, ptr %4, align 8
  %.not = icmp eq i64 %5, 0
  br i1 %.not, label %._crit_edge, label %.lr.ph

6:                                                ; preds = %.lr.ph
  %7 = add nuw i64 %.07, 1
  %8 = load i64, ptr %4, align 8
  %9 = icmp ult i64 %7, %8
  br i1 %9, label %.lr.ph, label %._crit_edge, !llvm.loop !10

.lr.ph:                                           ; preds = %2, %6
  %.07 = phi i64 [ %7, %6 ], [ 0, %2 ]
  %10 = load ptr, ptr %3, align 8
  %11 = getelementptr inbounds nuw ptr, ptr %10, i64 %.07
  %12 = load ptr, ptr %11, align 8
  %13 = tail call i32 @SDL_strcmp_REAL(ptr noundef %1, ptr noundef %12) #6
  %14 = icmp eq i32 %13, 0
  br i1 %14, label %._crit_edge, label %6

._crit_edge:                                      ; preds = %.lr.ph, %6, %2
  %.lcssa = phi i1 [ false, %2 ], [ %14, %6 ], [ %14, %.lr.ph ]
  ret i1 %.lcssa
}